target datalayout = "e-m:e-p270:32:32-p271:32:32-p272:64:64-i64:64-i128:128-f80:128-n8:16:32:64-S128"
target triple = "x86_64-pc-linux-gnu"

@hf_vrt_context_state_event_en_cal_time = internal global i32 0, align 4
@hf_vrt_context_state_event_en_valid_data = internal global i32 0, align 4
@hf_vrt_context_state_event_en_ref_lock = internal global i32 0, align 4
@hf_vrt_context_state_event_en_agc = internal global i32 0, align 4
@hf_vrt_context_state_event_en_detected_sig = internal global i32 0, align 4
@hf_vrt_context_state_event_en_spectral_inv = internal global i32 0, align 4
@hf_vrt_context_state_event_en_over_range = internal global i32 0, align 4
@hf_vrt_context_state_event_en_sample_loss = internal global i32 0, align 4
@hf_vrt_context_state_event_cal_time = internal global i32 0, align 4
@hf_vrt_context_state_event_valid_data = internal global i32 0, align 4
@hf_vrt_context_state_event_ref_lock = internal global i32 0, align 4
@hf_vrt_context_state_event_agc = internal global i32 0, align 4
@hf_vrt_context_state_event_detected_sig = internal global i32 0, align 4
@hf_vrt_context_state_event_spectral_inv = internal global i32 0, align 4
@hf_vrt_context_state_event_over_range = internal global i32 0, align 4
@hf_vrt_context_state_event_sample_loss = internal global i32 0, align 4
@hf_vrt_context_state_event_user = internal global i32 0, align 4
@.str.519 = private unnamed_addr constant [27 x i8] c"State and event indicators\00", align 1

; Function Attrs: null_pointer_is_valid sspstrong uwtable
define internal i32 @dissect_context_state_event(ptr noundef %0, ptr noundef %1, i32 noundef %2) #0 {
  %4 = alloca ptr, align 8
  %5 = alloca ptr, align 8
  %6 = alloca i32, align 4
  %7 = alloca ptr, align 8
  store ptr %0, ptr %4, align 8
  store ptr %1, ptr %5, align 8
  store i32 %2, ptr %6, align 4
  call void @llvm.lifetime.start.p0(i64 8, ptr %7) #7
  %8 = load ptr, ptr %4, align 8
  %9 = load ptr, ptr %5, align 8
  %10 = load i32, ptr %6, align 4
  %11 = call ptr @proto_tree_add_subtree(ptr noundef %8, ptr noundef %9, i32 noundef %10, i32 noundef 4, i32 noundef 10, ptr noundef null, ptr noundef @.str.519)
  store ptr %11, ptr %7, align 8
  %12 = load ptr, ptr %7, align 8
  %13 = load i32, ptr @hf_vrt_context_state_event_en_cal_time, align 4
  %14 = load ptr, ptr %5, align 8
  %15 = load i32, ptr %6, align 4
  %16 = call ptr @proto_tree_add_item(ptr noundef %12, i32 noundef %13, ptr noundef %14, i32 noundef %15, i32 noundef 1, i32 noundef 0)
  %17 = load ptr, ptr %7, align 8
  %18 = load i32, ptr @hf_vrt_context_state_event_en_valid_data, align 4
  %19 = load ptr, ptr %5, align 8
  %20 = load i32, ptr %6, align 4
  %21 = call ptr @proto_tree_add_item(ptr noundef %17, i32 noundef %18, ptr noundef %19, i32 noundef %20, i32 noundef 1, i32 noundef 0)
  %22 = load ptr, ptr %7, align 8
  %23 = load i32, ptr @hf_vrt_context_state_event_en_ref_lock, align 4
  %24 = load ptr, ptr %5, align 8
  %25 = load i32, ptr %6, align 4
  %26 = call ptr @proto_tree_add_item(ptr noundef %22, i32 noundef %23, ptr noundef %24, i32 noundef %25, i32 noundef 1, i32 noundef 0)
  %27 = load ptr, ptr %7, align 8
  %28 = load i32, ptr @hf_vrt_context_state_event_en_agc, align 4
  %29 = load ptr, ptr %5, align 8
  %30 = load i32, ptr %6, align 4
  %31 = call ptr @proto_tree_add_item(ptr noundef %27, i32 noundef %28, ptr noundef %29, i32 noundef %30, i32 noundef 1, i32 noundef 0)
  %32 = load ptr, ptr %7, align 8
  %33 = load i32, ptr @hf_vrt_context_state_event_en_detected_sig, align 4
  %34 = load ptr, ptr %5, align 8
  %35 = load i32, ptr %6, align 4
  %36 = call ptr @proto_tree_add_item(ptr noundef %32, i32 noundef %33, ptr noundef %34, i32 noundef %35, i32 noundef 1, i32 noundef 0)
  %37 = load ptr, ptr %7, align 8
  %38 = load i32, ptr @hf_vrt_context_state_event_en_spectral_inv, align 4
  %39 = load ptr, ptr %5, align 8
  %40 = load i32, ptr %6, align 4
  %41 = call ptr @proto_tree_add_item(ptr noundef %37, i32 noundef %38, ptr noundef %39, i32 noundef %40, i32 noundef 1, i32 noundef 0)
  %42 = load ptr, ptr %7, align 8
  %43 = load i32, ptr @hf_vrt_context_state_event_en_over_range, align 4
  %44 = load ptr, ptr %5, align 8
  %45 = load i32, ptr %6, align 4
  %46 = call ptr @proto_tree_add_item(ptr noundef %42, i32 noundef %43, ptr noundef %44, i32 noundef %45, i32 noundef 1, i32 noundef 0)
  %47 = load ptr, ptr %7, align 8
  %48 = load i32, ptr @hf_vrt_context_state_event_en_sample_loss, align 4
  %49 = load ptr, ptr %5, align 8
  %50 = load i32, ptr %6, align 4
  %51 = call ptr @proto_tree_add_item(ptr noundef %47, i32 noundef %48, ptr noundef %49, i32 noundef %50, i32 noundef 1, i32 noundef 0)
  %52 = load ptr, ptr %7, align 8
  %53 = load i32, ptr @hf_vrt_context_state_event_cal_time, align 4
  %54 = load ptr, ptr %5, align 8
  %55 = load i32, ptr %6, align 4
  %56 = add i32 %55, 1
  %57 = call ptr @proto_tree_add_item(ptr noundef %52, i32 noundef %53, ptr noundef %54, i32 noundef %56, i32 noundef 1, i32 noundef 0)
  %58 = load ptr, ptr %7, align 8
  %59 = load i32, ptr @hf_vrt_context_state_event_valid_data, align 4
  %60 = load ptr, ptr %5, align 8
  %61 = load i32, ptr %6, align 4
  %62 = add i32 %61, 1
  %63 = call ptr @proto_tree_add_item(ptr noundef %58, i32 noundef %59, ptr noundef %60, i32 noundef %62, i32 noundef 1, i32 noundef 0)
  %64 = load ptr, ptr %7, align 8
  %65 = load i32, ptr @hf_vrt_context_state_event_ref_lock, align 4
  %66 = load ptr, ptr %5, align 8
  %67 = load i32, ptr %6, align 4
  %68 = add i32 %67, 1
  %69 = call ptr @proto_tree_add_item(ptr noundef %64, i32 noundef %65, ptr noundef %66, i32 noundef %68, i32 noundef 1, i32 noundef 0)
  %70 = load ptr, ptr %7, align 8
  %71 = load i32, ptr @hf_vrt_context_state_event_agc, align 4
  %72 = load ptr, ptr %5, align 8
  %73 = load i32, ptr %6, align 4
  %74 = add i32 %73, 1
  %75 = call ptr @proto_tree_add_item(ptr noundef %70, i32 noundef %71, ptr noundef %72, i32 noundef %74, i32 noundef 1, i32 noundef 0)
  %76 = load ptr, ptr %7, align 8
  %77 = load i32, ptr @hf_vrt_context_state_event_detected_sig, align 4
  %78 = load ptr, ptr %5, align 8
  %79 = load i32, ptr %6, align 4
  %80 = add i32 %79, 2
  %81 = call ptr @proto_tree_add_item(ptr noundef %76, i32 noundef %77, ptr noundef %78, i32 noundef %80, i32 noundef 1, i32 noundef 0)
  %82 = load ptr, ptr %7, align 8
  %83 = load i32, ptr @hf_vrt_context_state_event_spectral_inv, align 4
  %84 = load ptr, ptr %5, align 8
  %85 = load i32, ptr %6, align 4
  %86 = add i32 %85, 2
  %87 = call ptr @proto_tree_add_item(ptr noundef %82, i32 noundef %83, ptr noundef %84, i32 noundef %86, i32 noundef 1, i32 noundef 0)
  %88 = load ptr, ptr %7, align 8
  %89 = load i32, ptr @hf_vrt_context_state_event_over_range, align 4
  %90 = load ptr, ptr %5, align 8
  %91 = load i32, ptr %6, align 4
  %92 = add i32 %91, 2
  %93 = call ptr @proto_tree_add_item(ptr noundef %88, i32 noundef %89, ptr noundef %90, i32 noundef %92, i32 noundef 1, i32 noundef 0)
  %94 = load ptr, ptr %7, align 8
  %95 = load i32, ptr @hf_vrt_context_state_event_sample_loss, align 4
  %96 = load ptr, ptr %5, align 8
  %97 = load i32, ptr %6, align 4
  %98 = add i32 %97, 2
  %99 = call ptr @proto_tree_add_item(ptr noundef %94, i32 noundef %95, ptr noundef %96, i32 noundef %98, i32 noundef 1, i32 noundef 0)
  %100 = load ptr, ptr %7, align 8
  %101 = load i32, ptr @hf_vrt_context_state_event_user, align 4
  %102 = load ptr, ptr %5, align 8
  %103 = load i32, ptr %6, align 4
  %104 = add i32 %103, 3
  %105 = call ptr @proto_tree_add_item(ptr noundef %100, i32 noundef %101, ptr noundef %102, i32 noundef %104, i32 noundef 1, i32 noundef 0)
  call void @llvm.lifetime.end.p0(i64 8, ptr %7) #7
  ret i32 0
}