; Function Attrs: null_pointer_is_valid sspstrong uwtable
define internal noundef i32 @dissect_context_state_event(ptr noundef %0, ptr noundef %1, i32 noundef %2) #0 {
  %4 = tail call ptr @proto_tree_add_subtree(ptr noundef %0, ptr noundef %1, i32 noundef %2, i32 noundef 4, i32 noundef 10, ptr noundef null, ptr noundef nonnull @.str.519)
  %5 = load i32, ptr @hf_vrt_context_state_event_en_cal_time, align 4
  %6 = tail call ptr @proto_tree_add_item(ptr noundef %4, i32 noundef %5, ptr noundef %1, i32 noundef %2, i32 noundef 1, i32 noundef 0)
  %7 = load i32, ptr @hf_vrt_context_state_event_en_valid_data, align 4
  %8 = tail call ptr @proto_tree_add_item(ptr noundef %4, i32 noundef %7, ptr noundef %1, i32 noundef %2, i32 noundef 1, i32 noundef 0)
  %9 = load i32, ptr @hf_vrt_context_state_event_en_ref_lock, align 4
  %10 = tail call ptr @proto_tree_add_item(ptr noundef %4, i32 noundef %9, ptr noundef %1, i32 noundef %2, i32 noundef 1, i32 noundef 0)
  %11 = load i32, ptr @hf_vrt_context_state_event_en_agc, align 4
  %12 = tail call ptr @proto_tree_add_item(ptr noundef %4, i32 noundef %11, ptr noundef %1, i32 noundef %2, i32 noundef 1, i32 noundef 0)
  %13 = load i32, ptr @hf_vrt_context_state_event_en_detected_sig, align 4
  %14 = tail call ptr @proto_tree_add_item(ptr noundef %4, i32 noundef %13, ptr noundef %1, i32 noundef %2, i32 noundef 1, i32 noundef 0)
  %15 = load i32, ptr @hf_vrt_context_state_event_en_spectral_inv, align 4
  %16 = tail call ptr @proto_tree_add_item(ptr noundef %4, i32 noundef %15, ptr noundef %1, i32 noundef %2, i32 noundef 1, i32 noundef 0)
  %17 = load i32, ptr @hf_vrt_context_state_event_en_over_range, align 4
  %18 = tail call ptr @proto_tree_add_item(ptr noundef %4, i32 noundef %17, ptr noundef %1, i32 noundef %2, i32 noundef 1, i32 noundef 0)
  %19 = load i32, ptr @hf_vrt_context_state_event_en_sample_loss, align 4
  %20 = tail call ptr @proto_tree_add_item(ptr noundef %4, i32 noundef %19, ptr noundef %1, i32 noundef %2, i32 noundef 1, i32 noundef 0)
  %21 = load i32, ptr @hf_vrt_context_state_event_cal_time, align 4
  %22 = add i32 %2, 1
  %23 = tail call ptr @proto_tree_add_item(ptr noundef %4, i32 noundef %21, ptr noundef %1, i32 noundef %22, i32 noundef 1, i32 noundef 0)
  %24 = load i32, ptr @hf_vrt_context_state_event_valid_data, align 4
  %25 = tail call ptr @proto_tree_add_item(ptr noundef %4, i32 noundef %24, ptr noundef %1, i32 noundef %22, i32 noundef 1, i32 noundef 0)
  %26 = load i32, ptr @hf_vrt_context_state_event_ref_lock, align 4
  %27 = tail call ptr @proto_tree_add_item(ptr noundef %4, i32 noundef %26, ptr noundef %1, i32 noundef %22, i32 noundef 1, i32 noundef 0)
  %28 = load i32, ptr @hf_vrt_context_state_event_agc, align 4
  %29 = tail call ptr @proto_tree_add_item(ptr noundef %4, i32 noundef %28, ptr noundef %1, i32 noundef %22, i32 noundef 1, i32 noundef 0)
  %30 = load i32, ptr @hf_vrt_context_state_event_detected_sig, align 4
  %31 = add i32 %2, 2
  %32 = tail call ptr @proto_tree_add_item(ptr noundef %4, i32 noundef %30, ptr noundef %1, i32 noundef %31, i32 noundef 1, i32 noundef 0)
  %33 = load i32, ptr @hf_vrt_context_state_event_spectral_inv, align 4
  %34 = tail call ptr @proto_tree_add_item(ptr noundef %4, i32 noundef %33, ptr noundef %1, i32 noundef %31, i32 noundef 1, i32 noundef 0)
  %35 = load i32, ptr @hf_vrt_context_state_event_over_range, align 4
  %36 = tail call ptr @proto_tree_add_item(ptr noundef %4, i32 noundef %35, ptr noundef %1, i32 noundef %31, i32 noundef 1, i32 noundef 0)
  %37 = load i32, ptr @hf_vrt_context_state_event_sample_loss, align 4
  %38 = tail call ptr @proto_tree_add_item(ptr noundef %4, i32 noundef %37, ptr noundef %1, i32 noundef %31, i32 noundef 1, i32 noundef 0)
  %39 = load i32, ptr @hf_vrt_context_state_event_user, align 4
  %40 = add i32 %2, 3
  %41 = tail call ptr @proto_tree_add_item(ptr noundef %4, i32 noundef %39, ptr noundef %1, i32 noundef %40, i32 noundef 1, i32 noundef 0)
  ret i32 0
}